target datalayout = "e-m:e-p270:32:32-p271:32:32-p272:64:64-i64:64-i128:128-f80:128-n8:16:32:64-S128"
target triple = "x86_64-pc-linux-gnu"

%struct.z_data_st = type { i64, ptr, ptr }

@.str.23 = private unnamed_addr constant [31 x i8] c"../openssl/test/bioprinttest.c\00", align 1
@.str.277 = private unnamed_addr constant [8 x i8] c"bio_buf\00", align 1
@.str.278 = private unnamed_addr constant [15 x i8] c"data->expected\00", align 1

; Function Attrs: nounwind uwtable
define internal i32 @test_zu(i32 noundef %0) #0 {
  %2 = alloca i32, align 4
  %3 = alloca i32, align 4
  %4 = alloca [80 x i8], align 16
  %5 = alloca ptr, align 8
  %6 = alloca i32, align 4
  store i32 %0, ptr %3, align 4, !tbaa !4
  call void @llvm.lifetime.start.p0(i64 80, ptr %4) #4
  call void @llvm.lifetime.start.p0(i64 8, ptr %5) #4
  %7 = load i32, ptr %3, align 4, !tbaa !4
  %8 = sext i32 %7 to i64
  %9 = getelementptr inbounds [4 x %struct.z_data_st], ptr @zu_data, i64 0, i64 %8
  store ptr %9, ptr %5, align 8, !tbaa !19
  %10 = getelementptr inbounds [80 x i8], ptr %4, i64 0, i64 0
  %11 = load ptr, ptr %5, align 8, !tbaa !19
  %12 = getelementptr inbounds nuw %struct.z_data_st, ptr %11, i32 0, i32 1
  %13 = load ptr, ptr %12, align 8, !tbaa !21
  %14 = load ptr, ptr %5, align 8, !tbaa !19
  %15 = getelementptr inbounds nuw %struct.z_data_st, ptr %14, i32 0, i32 0
  %16 = load i64, ptr %15, align 8, !tbaa !24
  %17 = call i32 (ptr, i64, ptr, ...) @BIO_snprintf(ptr noundef %10, i64 noundef 79, ptr noundef %13, i64 noundef %16)
  %18 = getelementptr inbounds [80 x i8], ptr %4, i64 0, i64 0
  %19 = load ptr, ptr %5, align 8, !tbaa !19
  %20 = getelementptr inbounds nuw %struct.z_data_st, ptr %19, i32 0, i32 2
  %21 = load ptr, ptr %20, align 8, !tbaa !25
  %22 = call i32 @test_str_eq(ptr noundef @.str.23, i32 noundef 136, ptr noundef @.str.277, ptr noundef @.str.278, ptr noundef %18, ptr noundef %21)
  %23 = icmp ne i32 %22, 0
  br i1 %23, label %25, label %24

24:                                               ; preds = %1
  store i32 0, ptr %2, align 4
  store i32 1, ptr %6, align 4
  br label %26

25:                                               ; preds = %1
  store i32 1, ptr %2, align 4
  store i32 1, ptr %6, align 4
  br label %26

26:                                               ; preds = %25, %24
  call void @llvm.lifetime.end.p0(i64 8, ptr %5) #4
  call void @llvm.lifetime.end.p0(i64 80, ptr %4) #4
  %27 = load i32, ptr %2, align 4
  ret i32 %27
}